
Memory Configuration

Name             Origin             Length             Attributes
flash            0x0000000008000000 0x0000000000100000 xr
sram1            0x0000000020000000 0x0000000000018000 xw
sram2            0x0000000010000000 0x0000000000008000 xw
*default*        0x0000000000000000 0xffffffffffffffff

Linker script and memory map

LOAD bootloader.o
LOAD startup_file.o
LOAD main.o
LOAD pripherique_config.o
                0x0000000010008000                _stack = (ORIGIN (sram2) + LENGTH (sram2))
                0x00000000200001a8                _sdata = ADDR (.data)
                0x00000000200001a8                _ld_sdata = LOADADDR (.data)
                0x00000000200001a8                _edata = (SIZEOF (.data) + _sdata)
                0x0000000020000000                _stext = ADDR (.text)
                0x0000000020000000                _ld_stext = LOADADDR (.text)
                0x000000002000017c                _etext = (SIZEOF (.text) + ADDR (.text))

.text           0x0000000020000000      0x17c
 *(.text)
 .text          0x0000000020000000       0x18 bootloader.o
                0x0000000020000000                _start
 .text          0x0000000020000018       0x74 startup_file.o
                0x0000000020000018                Reset_handler
                0x0000000020000088                default_handler
 .text          0x000000002000008c       0x40 main.o
                0x000000002000008c                main
 .text          0x00000000200000cc       0xb0 pripherique_config.o
                0x00000000200000cc                initialisation
                0x00000000200000f8                led
                0x000000002000015e                allume
                0x000000002000016c                eteint

.glue_7         0x000000002000017c        0x0
 .glue_7        0x000000002000017c        0x0 linker stubs

.glue_7t        0x000000002000017c        0x0
 .glue_7t       0x000000002000017c        0x0 linker stubs

.vfp11_veneer   0x000000002000017c        0x0
 .vfp11_veneer  0x000000002000017c        0x0 linker stubs

.v4_bx          0x000000002000017c        0x0
 .v4_bx         0x000000002000017c        0x0 linker stubs

.iplt           0x000000002000017c        0x0
 .iplt          0x000000002000017c        0x0 bootloader.o

.rodat          0x000000002000017c       0x2c
 *(.rodata)
 .rodata        0x000000002000017c       0x2c pripherique_config.o
                0x000000002000017c                GPIO_ODR_BY
                0x0000000020000180                GPIO_ODR
                0x0000000020000184                GPIO_OTYPE_BY
                0x0000000020000188                GPIO_BSRR_BY
                0x000000002000018c                GPIO_BSRR
                0x0000000020000190                GPIO_MODER_BY
                0x0000000020000194                GPIO_MODER_GREEN
                0x0000000020000198                GPIO_PUPD_BY
                0x000000002000019c                RCC_CR
                0x00000000200001a0                RCC_RST
                0x00000000200001a4                RCC_EN

.rel.dyn        0x00000000200001a8        0x0
 .rel.iplt      0x00000000200001a8        0x0 bootloader.o

.data           0x00000000200001a8        0x0
 *(.data)
 .data          0x00000000200001a8        0x0 bootloader.o
 .data          0x00000000200001a8        0x0 startup_file.o
 .data          0x00000000200001a8        0x0 main.o
 .data          0x00000000200001a8        0x0 pripherique_config.o

.igot.plt       0x00000000200001a8        0x0
 .igot.plt      0x00000000200001a8        0x0 bootloader.o

.bss            0x00000000200001a8        0x0
                0x00000000200001a8                _sbss = .
 *(.bss)
 .bss           0x00000000200001a8        0x0 bootloader.o
 .bss           0x00000000200001a8        0x0 startup_file.o
 .bss           0x00000000200001a8        0x0 main.o
 .bss           0x00000000200001a8        0x0 pripherique_config.o
 *(COMMON)
                0x00000000200001a8                _ebss = .
OUTPUT(test.elf elf32-littlearm)
LOAD linker stubs

.ARM.attributes
                0x0000000000000000       0x35
 .ARM.attributes
                0x0000000000000000       0x21 bootloader.o
 .ARM.attributes
                0x0000000000000021       0x34 startup_file.o
 .ARM.attributes
                0x0000000000000055       0x34 main.o
 .ARM.attributes
                0x0000000000000089       0x34 pripherique_config.o

.comment        0x0000000000000000       0x49
 .comment       0x0000000000000000       0x49 startup_file.o
                                         0x4a (size before relaxing)
 .comment       0x0000000000000049       0x4a main.o
 .comment       0x0000000000000049       0x4a pripherique_config.o

.debug_line     0x0000000000000000      0x49a
 .debug_line    0x0000000000000000       0x42 bootloader.o
 .debug_line    0x0000000000000042      0x1b3 startup_file.o
 .debug_line    0x00000000000001f5       0xf0 main.o
 .debug_line    0x00000000000002e5      0x1b5 pripherique_config.o

.debug_info     0x0000000000000000      0x575
 .debug_info    0x0000000000000000       0x26 bootloader.o
 .debug_info    0x0000000000000026      0x1e8 startup_file.o
 .debug_info    0x000000000000020e      0x183 main.o
 .debug_info    0x0000000000000391      0x1e4 pripherique_config.o

.debug_abbrev   0x0000000000000000      0x289
 .debug_abbrev  0x0000000000000000       0x14 bootloader.o
 .debug_abbrev  0x0000000000000014       0xd9 startup_file.o
 .debug_abbrev  0x00000000000000ed       0xd6 main.o
 .debug_abbrev  0x00000000000001c3       0xc6 pripherique_config.o

.debug_aranges  0x0000000000000000       0x80
 .debug_aranges
                0x0000000000000000       0x20 bootloader.o
 .debug_aranges
                0x0000000000000020       0x20 startup_file.o
 .debug_aranges
                0x0000000000000040       0x20 main.o
 .debug_aranges
                0x0000000000000060       0x20 pripherique_config.o

.debug_str      0x0000000000000000      0x2b2
 .debug_str     0x0000000000000000       0x3f bootloader.o
 .debug_str     0x000000000000003f      0x197 startup_file.o
                                        0x213 (size before relaxing)
 .debug_str     0x00000000000001d6       0x4b main.o
                                        0x16a (size before relaxing)
 .debug_str     0x0000000000000221       0x91 pripherique_config.o
                                        0x203 (size before relaxing)

.debug_loc      0x0000000000000000      0x190
 .debug_loc     0x0000000000000000       0x91 startup_file.o
 .debug_loc     0x0000000000000091       0xff main.o

.debug_frame    0x0000000000000000       0xb8
 .debug_frame   0x0000000000000000       0x3c startup_file.o
 .debug_frame   0x000000000000003c       0x2c main.o
 .debug_frame   0x0000000000000068       0x50 pripherique_config.o

.debug_ranges   0x0000000000000000       0x48
 .debug_ranges  0x0000000000000000       0x48 main.o
